;
; Definition file of libraw_r-24.dll
; Automatic generated by gendef 1.1
; written by Kai Tietz 2008
;
LIBRARY "libraw_r-24.dll"
EXPORTS
J DATA
JS DATA
_Z10invertBitsPvy
_Z10setup_qlutPaPi
_Z11sget4_ordersPh
_Z12crxMakeQStepP8CrxImageP7CrxTilePij
_Z12crxParamInitP8CrxImagePP12CrxBandParamyyjjbj
_Z12unsigned_cmpPKvS0_
_Z13crxDecodeLineP12CrxBandParam
_Z13crxDecodeLineP12CrxBandParamPh
_Z13decode_S_typeiPjPt
_Z13sget_fixed32usPh
_Z14ifd_size_t_cmpPKvS0_
_Z15AngleConversionsPh
_Z15crxHorizontal53PiS_P19CrxWaveletTransformj
_Z15crxUpdateQparamP10CrxSubband
_Z15init_main_gradsPK22fuji_compressed_paramsP21fuji_compressed_block
_Z16crxDecodeTopLineP12CrxBandParam
_Z16crxFreeImageDataP8CrxImage
_Z16init_main_qtableP22fuji_compressed_paramsh
_Z17AngleConversion_asPh
_Z17crxSetupImageDataP17crx_data_header_tP8CrxImagePsxxPhi
_Z18crxDecodeGolombTopP12CrxBitstreamiPiS1_
_Z18crxFreeSubbandDataP8CrxImageP12CrxPlaneComp
_Z18crxProcessSubbandsP17crx_data_header_tP8CrxImageP7CrxTileP12CrxPlaneComp
_Z19crxConvertPlaneLineP8CrxImageiiiPii
_Z19crxReadImageHeadersP17crx_data_header_tP8CrxImagePhi
_Z19crxSetupSubbandDataP8CrxImageP12CrxPlaneCompPK7CrxTiley
_Z19libraw_int_to_floati
_Z19libraw_sget2_staticsPh
_Z19libraw_sget4_staticsPh
_Z20crxDecodeLineRoundedP12CrxBandParam
_Z21crxDecodeGolombNormalP12CrxBitstreamiPiS1_S1_
_Z21crxIdwt53FilterDecodeP12CrxPlaneCompiP8CrxQStep
_Z21crxReadSubbandHeadersP17crx_data_header_tP8CrxImageP7CrxTileP12CrxPlaneCompPPhPi
_Z22crxIdwt53FilterGetLineP12CrxPlaneCompi
_Z22libraw_sgetreal_staticsiPh
_Z23crxDecodeTopLineRoundedP12CrxBandParam
_Z24crxIdwt53FilterTransformP12CrxPlaneCompj
_Z25crxIdwt53FilterInitializeP12CrxPlaneCompiP8CrxQStep
_Z26crxDecodeLineNoRefPrevLineP12CrxBandParam
_Z29crxDecodeTopLineNoRefPrevLineP12CrxBandParam
_Z29libraw_tagtype_dataunit_bytesi
_Z30crxDecodeLineWithIQuantizationP10CrxSubbandP8CrxQStep
_Z9crxReadQPP12CrxBitstreami
_ZN10PseudoPump4peekEj
_ZN10PseudoPump7consumeEj
_ZN11BitPumpJpeg4peekEj
_ZN11BitPumpJpeg7consumeEj
_ZN12ByteStreamBE14skip_to_markerEv
_ZN12ByteStreamBE6get_u8Ev
_ZN12ByteStreamBE7get_u16Ev
_ZN13libraw_memmgr6mallocEy
_ZN13libraw_memmgr7mem_ptrEPv
_ZN13libraw_memmgr7reallocEPvy
_ZN13libraw_memmgrD2Ev
_ZN13pana8_bufio_t6refillEj
_ZN13pana8_bufio_t8getQWordEj
_ZN13pana8_param_t10gammaCurveEj
_ZN13pana8_param_t7GetDBitEy
_ZN13pana8_param_t8DecodeC8ER13pana8_bufio_tjjP6LibRawt
_ZN13pana8_param_tC1ERK12pana8_tags_t
_ZN13pana8_param_tC2ERK12pana8_tags_t
_ZN13pana8_param_tD2Ev
_ZN14LibRaw_SOFInfo9parse_sofER12ByteStreamBE
_ZN14LibRaw_SOFInfo9parse_sosER12ByteStreamBE
_ZN16LibRaw_constants11rec2020_rgbE DATA
_ZN16LibRaw_constants11xyzd50_srgbE DATA
_ZN16LibRaw_constants12dcip3d65_rgbE DATA
_ZN16LibRaw_constants12prophoto_rgbE DATA
_ZN16LibRaw_constants7rgb_rgbE DATA
_ZN16LibRaw_constants7xyz_rgbE DATA
_ZN16LibRaw_constants8aces_rgbE DATA
_ZN16LibRaw_constants8wide_rgbE DATA
_ZN16LibRaw_constants9adobe_rgbE DATA
_ZN16LibRaw_constants9d65_whiteE DATA
_ZN16checked_buffer_t11checkoffsetEi
_ZN16checked_buffer_t5sget2Ei
_ZN16checked_buffer_t5sget4Ei
_ZN16checked_buffer_t8sgetrealEii
_ZN16checked_buffer_t9tiff_sgetEjPxPjS1_S0_S1_Pi
_ZN16checked_buffer_tC1EsPhi
_ZN16checked_buffer_tC1Esi
_ZN16checked_buffer_tC2EsPhi
_ZN16checked_buffer_tC2Esi
_ZN16checked_buffer_tixEi
_ZN18buffered_bitpump_t4get2Ev
_ZN18buffered_bitpump_t4get4Ev
_ZN18buffered_bitpump_t7getbitsEj
_ZN18buffered_bitpump_tC2EP26LibRaw_abstract_datastreami
_ZN18buffered_bitpump_tD2Ev
_ZN18tile_stripe_data_t4initEP10tiff_ifd_tRK20libraw_image_sizes_tRK15unpacker_data_tsP26LibRaw_abstract_datastream
_ZN19LibRaw_bufio_params11set_bufsizeEi
_ZN19LibRaw_bufio_params7bufsizeE DATA
_ZN21pana_cs6_page_decoder11read_page12Ev
_ZN21pana_cs6_page_decoder9read_pageEv
_ZN24LibRaw_LjpegDecompressor10initializeEbb
_ZN24LibRaw_LjpegDecompressor11next_markerEb
_ZN24LibRaw_LjpegDecompressor16decode_ljpeg_422ERNSt3__16vectorItNS0_9allocatorItEEEEii
_ZN24LibRaw_LjpegDecompressor9parse_dhtEPbPA17_jPA256_j
_ZN24LibRaw_LjpegDecompressorC1EPhj
_ZN24LibRaw_LjpegDecompressorC1EPhjbb
_ZN24LibRaw_LjpegDecompressorC2EPhj
_ZN24LibRaw_LjpegDecompressorC2EPhjbb
_ZN24LibRaw_LjpegDecompressorD2Ev
_ZN24LibRaw_buffer_datastream3eofEv
_ZN24LibRaw_buffer_datastream4getsEPci
_ZN24LibRaw_buffer_datastream4readEPvyy
_ZN24LibRaw_buffer_datastream4seekExi
_ZN24LibRaw_buffer_datastream4sizeEv
_ZN24LibRaw_buffer_datastream4tellEv
_ZN24LibRaw_buffer_datastream5validEv
_ZN24LibRaw_buffer_datastream8get_charEv
_ZN24LibRaw_buffer_datastream8jpeg_srcEPv
_ZN24LibRaw_buffer_datastream9scanf_oneEPKcPv
_ZN24LibRaw_buffer_datastreamC1EPKvy
_ZN24LibRaw_buffer_datastreamC2EPKvy
_ZN24LibRaw_buffer_datastreamD0Ev
_ZN24LibRaw_buffer_datastreamD1Ev
_ZN24LibRaw_buffer_datastreamD2Ev
_ZN24fuji_wb_checked_buffer_t4isWBEj
_ZN25LibRaw_bigfile_datastream3eofEv
_ZN25LibRaw_bigfile_datastream4getsEPci
_ZN25LibRaw_bigfile_datastream4readEPvyy
_ZN25LibRaw_bigfile_datastream4seekExi
_ZN25LibRaw_bigfile_datastream4sizeEv
_ZN25LibRaw_bigfile_datastream4tellEv
_ZN25LibRaw_bigfile_datastream5fnameEv
_ZN25LibRaw_bigfile_datastream5validEv
_ZN25LibRaw_bigfile_datastream6wfnameEv
_ZN25LibRaw_bigfile_datastream8get_charEv
_ZN25LibRaw_bigfile_datastream9scanf_oneEPKcPv
_ZN25LibRaw_bigfile_datastreamC1EPKc
_ZN25LibRaw_bigfile_datastreamC1EPKw
_ZN25LibRaw_bigfile_datastreamC2EPKc
_ZN25LibRaw_bigfile_datastreamC2EPKw
_ZN25LibRaw_bigfile_datastreamD0Ev
_ZN25LibRaw_bigfile_datastreamD1Ev
_ZN25LibRaw_bigfile_datastreamD2Ev
_ZN25LibRaw_windows_datastream4OpenEPv
_ZN25LibRaw_windows_datastream4sizeEv
_ZN25LibRaw_windows_datastreamC1EPKc
_ZN25LibRaw_windows_datastreamC1EPv
_ZN25LibRaw_windows_datastreamC2EPKc
_ZN25LibRaw_windows_datastreamC2EPv
_ZN25LibRaw_windows_datastreamD0Ev
_ZN25LibRaw_windows_datastreamD1Ev
_ZN25LibRaw_windows_datastreamD2Ev
_ZN26LibRaw_abstract_datastream11is_bufferedEv
_ZN26LibRaw_abstract_datastream12buffering_onEv
_ZN26LibRaw_abstract_datastream13buffering_offEv
_ZN26LibRaw_abstract_datastream4lockEv
_ZN26LibRaw_abstract_datastream5fnameEv
_ZN26LibRaw_abstract_datastream6unlockEv
_ZN26LibRaw_abstract_datastream6wfnameEv
_ZN26LibRaw_abstract_datastream8jpeg_srcEPv
_ZN26LibRaw_abstract_datastreamD0Ev
_ZN26LibRaw_abstract_datastreamD2Ev
_ZN27LibRaw_SonyYCC_Decompressor11decode_sonyERNSt3__16vectorItNS0_9allocatorItEEEEii
_ZN27LibRaw_SonyYCC_Decompressor21decode_sony_ljpeg_420ERNSt3__16vectorItNS0_9allocatorItEEEEii
_ZN34LibRaw_bigfile_buffered_datastream11is_bufferedEv
_ZN34LibRaw_bigfile_buffered_datastream12buffering_onEv
_ZN34LibRaw_bigfile_buffered_datastream12fillBufferAtEix
_ZN34LibRaw_bigfile_buffered_datastream13buffering_offEv
_ZN34LibRaw_bigfile_buffered_datastream18selectStringBufferExRx
_ZN34LibRaw_bigfile_buffered_datastream3eofEv
_ZN34LibRaw_bigfile_buffered_datastream4getsEPci
_ZN34LibRaw_bigfile_buffered_datastream4readEPvyy
_ZN34LibRaw_bigfile_buffered_datastream4seekExi
_ZN34LibRaw_bigfile_buffered_datastream4sizeEv
_ZN34LibRaw_bigfile_buffered_datastream4tellEv
_ZN34LibRaw_bigfile_buffered_datastream5fnameEv
_ZN34LibRaw_bigfile_buffered_datastream5validEv
_ZN34LibRaw_bigfile_buffered_datastream6readAtEPvyx
_ZN34LibRaw_bigfile_buffered_datastream6wfnameEv
_ZN34LibRaw_bigfile_buffered_datastream8get_charEv
_ZN34LibRaw_bigfile_buffered_datastream9scanf_oneEPKcPv
_ZN34LibRaw_bigfile_buffered_datastreamC1EPKc
_ZN34LibRaw_bigfile_buffered_datastreamC1EPKw
_ZN34LibRaw_bigfile_buffered_datastreamC2EPKc
_ZN34LibRaw_bigfile_buffered_datastreamC2EPKw
_ZN34LibRaw_bigfile_buffered_datastreamD0Ev
_ZN34LibRaw_bigfile_buffered_datastreamD1Ev
_ZN34LibRaw_bigfile_buffered_datastreamD2Ev
_ZN3DHT10get_hv_grbEiii
_ZN3DHT10get_hv_rbgEiii
_ZN3DHT10make_glineEi
_ZN3DHT11make_greensEv
_ZN3DHT11make_rbdiagEi
_ZN3DHT12get_diag_grbEiii
_ZN3DHT12get_diag_rbgEiii
_ZN3DHT12make_hv_dirsEv
_ZN3DHT12restore_hotsEv
_ZN3DHT13copy_to_imageEv
_ZN3DHT13make_hv_dlineEi
_ZN3DHT14make_diag_dirsEv
_ZN3DHT14refine_hv_dirsEii
_ZN3DHT15illustrate_dirsEv
_ZN3DHT15make_diag_dlineEi
_ZN3DHT15refine_ihv_dirsEi
_ZN3DHT16illustrate_dlineEi
_ZN3DHT16refine_diag_dirsEii
_ZN3DHT17refine_idiag_dirsEi
_ZN3DHT7make_rbEv
_ZN3DHT9hide_hotsEv
_ZN3DHT9make_rbhvEi
_ZN3DHTC1ER6LibRaw
_ZN3DHTC2ER6LibRaw
_ZN3DHTD1Ev
_ZN3DHTD2Ev
_ZN4AAHD11make_ahd_rbEv
_ZN4AAHD12evaluate_ahdEv
_ZN4AAHD13combine_imageEv
_ZN4AAHD14make_ahd_glineEi
_ZN4AAHD14make_ahd_rb_hvEi
_ZN4AAHD14refine_hv_dirsEii
_ZN4AAHD14refine_hv_dirsEv
_ZN4AAHD15illustrate_dirsEv
_ZN4AAHD15make_ahd_greensEv
_ZN4AAHD15refine_ihv_dirsEi
_ZN4AAHD16illustrate_dlineEi
_ZN4AAHD16make_ahd_rb_lastEi
_ZN4AAHD8gammaLUTE DATA
_ZN4AAHD9hide_hotsEv
_ZN4AAHD9yuv_coeffE DATA
_ZN4AAHDC1ER6LibRaw
_ZN4AAHDC2ER6LibRaw
_ZN4AAHDD1Ev
_ZN4AAHDD2Ev
_ZN6LibRaw10aRGB_coeffEPA3_d
_ZN6LibRaw10apply_tiffEv
_ZN6LibRaw10bad_pixelsEPKc
_ZN6LibRaw10cameraListEv
_ZN6LibRaw10canon_s2isEv
_ZN6LibRaw10copy_bayerEPtS0_
_ZN6LibRaw10crxLoadRawEv
_ZN6LibRaw10dcb_color2EPA3_f
_ZN6LibRaw10dcb_color3EPA3_f
_ZN6LibRaw10dcb_decideEPA3_fS1_
_ZN6LibRaw10fbdd_greenEv
_ZN6LibRaw10fill_holesEi
_ZN6LibRaw10find_greenEiiii
_ZN6LibRaw10flip_indexEii
_ZN6LibRaw10free_imageEv
_ZN6LibRaw10getbithuffEiPt
_ZN6LibRaw10lch_to_rgbEPA3_d
_ZN6LibRaw10ljpeg_diffEPt
_ZN6LibRaw10ljpeg_idctEP5jhead
_ZN6LibRaw10minolta_z2Ev
_ZN6LibRaw10nikon_3700Ev
_ZN6LibRaw10nikon_e995Ev
_ZN6LibRaw10open_bayerEPKhjtttttthhjjj
_ZN6LibRaw10parse_ciffExii
_ZN6LibRaw10parse_cineEv
_ZN6LibRaw10parse_exifEx
_ZN6LibRaw10parse_fujiEx
_ZN6LibRaw10parse_jpegEx
_ZN6LibRaw10parse_riffEi
_ZN6LibRaw10parse_smalExx
_ZN6LibRaw10parse_tiffEx
_ZN6LibRaw10rgb_to_lchEPA3_d
_ZN6LibRaw10romm_coeffEPA3_f
_ZN6LibRaw10strcasestrEPcPKc
_ZN6LibRaw10trimSpacesEPc
_ZN6LibRaw10try_dngsdkEv
_ZN6LibRaw11adobe_coeffEjPKci
_ZN6LibRaw11cameraCountEv
_ZN6LibRaw11checkCancelEv
_ZN6LibRaw11dcb_nyquistEv
_ZN6LibRaw11fuji_rotateEv
_ZN6LibRaw11gamma_curveEddii
_ZN6LibRaw11have_fpdataEv
_ZN6LibRaw11libraw_swabEPvi
_ZN6LibRaw11ljpeg_startEP5jheadi
_ZN6LibRaw11nikon_e2100Ev
_ZN6LibRaw11open_bufferEPKvy
_ZN6LibRaw11ph1_bithuffEiPt
_ZN6LibRaw11read_shortsEPtj
_ZN6LibRaw11strprogressE15LibRaw_progress
_ZN6LibRaw12Oly_wb_list1E DATA
_ZN6LibRaw12Oly_wb_list2E DATA
_ZN6LibRaw12capabilitiesEv
_ZN6LibRaw12cubic_splineEPKiS1_i
_ZN6LibRaw12int_to_floatEi
_ZN6LibRaw12is_canon_600Ev
_ZN6LibRaw12linear_tableEj
_ZN6LibRaw12make_decoderEPKh
_ZN6LibRaw12parseSonySR2EPhjjj
_ZN6LibRaw12parseSonySRFEj
_ZN6LibRaw12parse_rolleiEv
_ZN6LibRaw12raw2image_exEi
_ZN6LibRaw12scale_colorsEv
_ZN6LibRaw12set_dng_hostEPv
_ZN6LibRaw12simple_coeffEi
_ZN6LibRaw12sony_decryptEPjiii
_ZN6LibRaw12unpack_thumbEv
_ZN6LibRaw12x3f_load_rawEv
_ZN6LibRaw13Canon_wbi2stdE DATA
_ZN6LibRaw13Fuji_wb_list1E DATA
_ZN6LibRaw13Fuji_wb_list2E DATA
_ZN6LibRaw13apply_profileEPKcS1_
_ZN6LibRaw13cam_xyz_coeffEPA4_fPA3_d
_ZN6LibRaw13dcraw_processEv
_ZN6LibRaw13get_CanonAreaEv
_ZN6LibRaw13get_timestampEi
_ZN6LibRaw13hat_transformEPfS0_iii
_ZN6LibRaw13is_jpeg_thumbEv
_ZN6LibRaw13is_nikon_srawEv
_ZN6LibRaw13median_filterEv
_ZN6LibRaw13parseCR3_CTMDEs
_ZN6LibRaw13parseCR3_FreeEv
_ZN6LibRaw13parse_kyoceraEv
_ZN6LibRaw13parse_minoltaEx
_ZN6LibRaw13pseudoinverseEPA3_dS1_i
_ZN6LibRaw13remove_zeroesEv
_ZN6LibRaw13setCancelFlagEv
_ZN6LibRaw13sony_load_rawEv
_ZN6LibRaw13sraw_midpointEv
_ZN6LibRaw13versionNumberEv
_ZN6LibRaw14PentaxLensInfoEyj
_ZN6LibRaw14adjust_maximumEv
_ZN6LibRaw14canon_load_rawEv
_ZN6LibRaw14convert_to_rgbEv
_ZN6LibRaw14copy_mem_imageEPvii
_ZN6LibRaw14crxDecodePlaneEPvj
_ZN6LibRaw14dcb_color_fullEv
_ZN6LibRaw14dcb_correctionEv
_ZN6LibRaw14dcb_refinementEv
_ZN6LibRaw14green_matchingEv
_ZN6LibRaw14nikon_load_rawEv
_ZN6LibRaw14nokia_load_rawEv
_ZN6LibRaw14parse_broadcomEv
_ZN6LibRaw14parse_sinar_iaEv
_ZN6LibRaw14parse_tiff_ifdEx
_ZN6LibRaw14selectCRXFrameEsj
_ZN6LibRaw14selectCRXTrackEv
_ZN6LibRaw14subtract_blackEv
_ZN6LibRaw14write_ppm_tiffEv
_ZN6LibRaw15Canon_WBpresetsEii
_ZN6LibRaw15Nikon_NRW_WBtagEii
_ZN6LibRaw15Pentax_wb_list1E DATA
_ZN6LibRaw15Pentax_wb_list2E DATA
_ZN6LibRaw15ahd_interpolateEv
_ZN6LibRaw15canon_600_coeffEv
_ZN6LibRaw15canon_600_colorEPii
_ZN6LibRaw15ciff_block_1030Ev
_ZN6LibRaw15clearCancelFlagEv
_ZN6LibRaw15crw_init_tablesEjPPt
_ZN6LibRaw15dcb_correction2Ev
_ZN6LibRaw15dcraw_clear_memEP24libraw_processed_image_t
_ZN6LibRaw15dht_interpolateEv
_ZN6LibRaw15fbdd_correctionEv
_ZN6LibRaw15init_fuji_blockEP21fuji_compressed_blockPK22fuji_compressed_paramsxj
_ZN6LibRaw15init_fuji_comprEP22fuji_compressed_params
_ZN6LibRaw15is_coolscan_nefEv
_ZN6LibRaw15is_curve_linearEv
_ZN6LibRaw15lin_interpolateEv
_ZN6LibRaw15nikon_load_srawEv
_ZN6LibRaw15open_datastreamEP26LibRaw_abstract_datastream
_ZN6LibRaw15packed_load_rawEv
_ZN6LibRaw15parseHassyModelEv
_ZN6LibRaw15parse_kodak_ifdEx
_ZN6LibRaw15parse_makernoteExi
_ZN6LibRaw15parse_phase_oneEx
_ZN6LibRaw15pentax_load_rawEv
_ZN6LibRaw15ppg_interpolateEv
_ZN6LibRaw15pre_interpolateEv
_ZN6LibRaw15raw2image_startEv
_ZN6LibRaw15rollei_load_rawEv
_ZN6LibRaw15unpack_thumb_exEi
_ZN6LibRaw15vng_interpolateEv
_ZN6LibRaw15wavelet_denoiseEv
_ZN6LibRaw16KodakIllumMatrixEjPf
_ZN6LibRaw16Kodak_DCR_WBtagsEiji
_ZN6LibRaw16Kodak_KDC_WBtagsEii
_ZN6LibRaw16Sony_SR2_wb_listE DATA
_ZN6LibRaw16Sony_SRF_wb_listE DATA
_ZN6LibRaw16aahd_interpolateEv
_ZN6LibRaw16adobe_copy_pixelEjjPPt
_ZN6LibRaw16blend_highlightsEv
_ZN6LibRaw16fbdd_correction2EPA3_d
_ZN6LibRaw16free_omp_buffersEPPci
_ZN6LibRaw16fuji_decode_loopEP22fuji_compressed_paramsiPxPjPh
_ZN6LibRaw16get_decoder_infoEP21libraw_decoder_info_t
_ZN6LibRaw16guess_byte_orderEi
_ZN6LibRaw16make_decoder_refEPPKh
_ZN6LibRaw16nikon_read_curveEv
_ZN6LibRaw16olympus_load_rawEv
_ZN6LibRaw16parseLeicaLensIDEv
_ZN6LibRaw16parse_gps_librawEx
_ZN6LibRaw16parse_thumb_noteExjj
_ZN6LibRaw16samsung_load_rawEv
_ZN6LibRaw16setMakeFromIndexEj
_ZN6LibRaw16smal_v6_load_rawEv
_ZN6LibRaw16smal_v9_load_rawEv
_ZN6LibRaw16valid_for_dngsdkEv
_ZN6LibRaw17Canon_WBCTpresetsEs
_ZN6LibRaw17Sony_SR2_wb_list1E DATA
_ZN6LibRaw17broadcom_load_rawEv
_ZN6LibRaw17canon_600_auto_wbEv
_ZN6LibRaw17canon_600_correctEv
_ZN6LibRaw17canon_has_lowbitsEv
_ZN6LibRaw17convertFloatToIntEfff
_ZN6LibRaw17crxLoadDecodeLoopEPvi
_ZN6LibRaw17fuji_decode_stripEP22fuji_compressed_paramsixjPh
_ZN6LibRaw17is_floating_pointEv
_ZN6LibRaw17jpeg_thumb_writerEP6_iobufPci
_ZN6LibRaw17leaf_hdr_load_rawEv
_ZN6LibRaw17nikon_he_load_rawEv
_ZN6LibRaw17pana8_decode_loopEPv
_ZN6LibRaw17phase_one_correctEv
_ZN6LibRaw17remove_caseSubstrEPcS0_
_ZN6LibRaw17samsung2_load_rawEv
_ZN6LibRaw17samsung3_load_rawEv
_ZN6LibRaw17scale_colors_loopEPf
_ZN6LibRaw17sony_arq_load_rawEv
_ZN6LibRaw17sony_arw_load_rawEv
_ZN6LibRaw17unpacked_load_rawEv
_ZN6LibRaw18GetNormalizedModelEv
_ZN6LibRaw18border_interpolateEi
_ZN6LibRaw18canon_600_fixed_wbEi
_ZN6LibRaw18canon_600_load_rawEv
_ZN6LibRaw18copy_line_to_bayerEP21fuji_compressed_blockiii
_ZN6LibRaw18crop_masked_pixelsEv
_ZN6LibRaw18dcb_copy_to_bufferEPA3_f
_ZN6LibRaw18dcraw_thumb_writerEPKc
_ZN6LibRaw18eight_bit_load_rawEv
_ZN6LibRaw18find_ifd_by_offsetEx
_ZN6LibRaw18kodak_262_load_rawEv
_ZN6LibRaw18kodak_65000_decodeEPsi
_ZN6LibRaw18kodak_rgb_load_rawEv
_ZN6LibRaw18kodak_thumb_loaderEv
_ZN6LibRaw18ljpeg_row_unrolledEiP5jhead
_ZN6LibRaw18lossy_dng_load_rawEv
_ZN6LibRaw18malloc_omp_buffersEiy
_ZN6LibRaw18nikon_yuv_load_rawEv
_ZN6LibRaw18pana8_decode_stripEPvi
_ZN6LibRaw18panasonic_load_rawEv
_ZN6LibRaw18parseLeicaLensNameEj
_ZN6LibRaw18parseSonyLensType2Ehh
_ZN6LibRaw18parse_exif_interopEx
_ZN6LibRaw18phase_one_load_rawEv
_ZN6LibRaw18process_Hassy_LensEi
_ZN6LibRaw18recover_highlightsEv
_ZN6LibRaw18recycle_datastreamEv
_ZN6LibRaw18sony_arw2_load_rawEv
_ZN6LibRaw18xtrans_interpolateEi
_ZN6LibRaw19canon_sraw_load_rawEv
_ZN6LibRaw19convert_to_rgb_loopEPA4_f
_ZN6LibRaw19copy_fuji_uncroppedEPtS0_
_ZN6LibRaw19copy_line_to_xtransEP21fuji_compressed_blockiii
_ZN6LibRaw19crxParseImageHeaderEPhix
_ZN6LibRaw19fuji_14bit_load_rawEv
_ZN6LibRaw19hasselblad_load_rawEv
_ZN6LibRaw19kodak_c330_load_rawEv
_ZN6LibRaw19kodak_c603_load_rawEv
_ZN6LibRaw19kodak_jpeg_load_rawEv
_ZN6LibRaw19kodak_radc_load_rawEv
_ZN6LibRaw19packed_dng_load_rawEv
_ZN6LibRaw19parseEpsonMakernoteExij
_ZN6LibRaw19parseFujiMakernotesEjjjj
_ZN6LibRaw19parseLeicaMakernoteExij
_ZN6LibRaw19parseNikonMakernoteExij
_ZN6LibRaw19parseSigmaMakernoteExij
_ZN6LibRaw19parseSonyMakernotesExjjjjRPhRtS1_S2_S1_S2_S1_S2_S1_S2_S1_S2_S1_S2_S1_S2_S1_S2_
_ZN6LibRaw19process_Sony_0x0116EPhty
_ZN6LibRaw19process_Sony_0x2010EPht
_ZN6LibRaw19process_Sony_0x9050EPhty
_ZN6LibRaw19process_Sony_0x9400EPhty
_ZN6LibRaw19process_Sony_0x9402EPht
_ZN6LibRaw19process_Sony_0x9403EPht
_ZN6LibRaw19process_Sony_0x9406EPht
_ZN6LibRaw19process_Sony_0x940cEPht
_ZN6LibRaw19process_Sony_0x940eEPhty
_ZN6LibRaw19setPhaseOneFeaturesEy
_ZN6LibRaw19setSonyBodyFeaturesEy
_ZN6LibRaw19simplify_make_modelEPjPcjS1_j
_ZN6LibRaw19smal_decode_segmentEPA2_ji
_ZN6LibRaw19sony_ljpeg_load_rawEv
_ZN6LibRaw19sony_ycbcr_load_rawEv
_ZN6LibRaw19xtrans_decode_blockEP21fuji_compressed_blockPK22fuji_compressed_paramsi
_ZN6LibRaw20Canon_CameraSettingsEj
_ZN6LibRaw20cameramakeridx2makerEj
_ZN6LibRaw20dcraw_make_mem_imageEPi
_ZN6LibRaw20dcraw_make_mem_thumbEPi
_ZN6LibRaw20deflate_dng_load_rawEv
_ZN6LibRaw20imacon_full_load_rawEv
_ZN6LibRaw20kodak_65000_load_rawEv
_ZN6LibRaw20kodak_dc120_load_rawEv
_ZN6LibRaw20kodak_thumb_load_rawEv
_ZN6LibRaw20kodak_ycbcr_load_rawEv
_ZN6LibRaw20libraw_openfile_tailEP26LibRaw_abstract_datastream
_ZN6LibRaw20lin_interpolate_loopEPii
_ZN6LibRaw20nikon_14bit_load_rawEv
_ZN6LibRaw20panasonicC6_load_rawEv
_ZN6LibRaw20panasonicC7_load_rawEv
_ZN6LibRaw20panasonicC8_load_rawEv
_ZN6LibRaw20parseCanonMakernotesEjjjj
_ZN6LibRaw20parseOlympus_RawInfoEjjjj
_ZN6LibRaw20parseRicohMakernotesExjjjj
_ZN6LibRaw20parse_custom_camerasEjP22libraw_custom_camera_tPPc
_ZN6LibRaw20parse_fuji_thumbnailEx
_ZN6LibRaw20phase_one_flat_fieldEii
_ZN6LibRaw20phase_one_load_raw_cEv
_ZN6LibRaw20phase_one_load_raw_sEv
_ZN6LibRaw20processNikonLensDataEPhj
_ZN6LibRaw20setCanonBodyFeaturesEy
_ZN6LibRaw20setLeicaBodyFeaturesEi
_ZN6LibRaw20sinar_4shot_load_rawEv
_ZN6LibRaw20unpack_function_nameEv
_ZN6LibRaw21HassyRawFormat_idx2HREj
_ZN6LibRaw21_CanonConvertApertureEt
_ZN6LibRaw21crxConvertPlaneLineDfEPvi
_ZN6LibRaw21crxLoadFinalizeLoopE3EPvi
_ZN6LibRaw21dcraw_ppm_tiff_writerEPKc
_ZN6LibRaw21identify_finetune_dcrEPcxx
_ZN6LibRaw21lossless_dng_load_rawEv
_ZN6LibRaw21parsePentaxMakernotesExjjjj
_ZN6LibRaw21parseSonyLensFeaturesEhh
_ZN6LibRaw21pentax_4shot_load_rawEv
_ZN6LibRaw21removeExcessiveSpacesEPc
_ZN6LibRaw21setPentaxBodyFeaturesEy
_ZN6LibRaw22SetStandardIlluminantsEjPKc
_ZN6LibRaw22adjust_sizes_info_onlyEv
_ZN6LibRaw22android_loose_load_rawEv
_ZN6LibRaw22android_tight_load_rawEv
_ZN6LibRaw22dng_ycbcr_thumb_loaderEv
_ZN6LibRaw22getOlympus_CameraType2Ev
_ZN6LibRaw22is_phaseone_compressedEv
_ZN6LibRaw22lossless_jpeg_load_rawEv
_ZN6LibRaw22minolta_rd175_load_rawEv
_ZN6LibRaw22parseAdobeRAFMakernoteEv
_ZN6LibRaw22parseOlympusMakernotesExjjjj
_ZN6LibRaw22parseOlympus_EquipmentEjjjj
_ZN6LibRaw22parseSamsungMakernotesExjjjj
_ZN6LibRaw22parse_makernote_0xc634Exij
_ZN6LibRaw22processCanonCameraInfoEyPhjjj
_ZN6LibRaw22quicktake_100_load_rawEv
_ZN6LibRaw22remove_trailing_spacesEPcy
_ZN6LibRaw22setOlympusBodyFeaturesEy
_ZN6LibRaw22tagtype_dataunit_bytesE DATA
_ZN6LibRaw23dcb_restore_from_bufferEPA3_f
_ZN6LibRaw23fuji_bayer_decode_blockEP21fuji_compressed_blockPK22fuji_compressed_paramsi
_ZN6LibRaw23guess_RAFDataGenerationEPh
_ZN6LibRaw23nikon_coolscan_load_rawEv
_ZN6LibRaw23parseAdobePanoMakernoteEv
_ZN6LibRaw23subtract_black_internalEv
_ZN6LibRaw24adjust_to_raw_inset_cropEjf
_ZN6LibRaw24fuji_compressed_load_rawEv
_ZN6LibRaw24hasselblad_full_load_rawEv
_ZN6LibRaw24identify_finetune_pentaxEv
_ZN6LibRaw24phase_one_fix_pixel_gradEjj
_ZN6LibRaw24phase_one_subtract_blackEPtS0_
_ZN6LibRaw25packed_tiled_dng_load_rawEv
_ZN6LibRaw25phase_one_free_tempbufferEv
_ZN6LibRaw25unpacked_load_raw_FujiDBPEv
_ZN6LibRaw26Canon_G9_linenums_2_StdWBiE DATA
_ZN6LibRaw26unpacked_load_raw_reversedEv
_ZN6LibRaw27Canon_D30_linenums_2_StdWBiE DATA
_ZN6LibRaw27identify_process_dng_fieldsEv
_ZN6LibRaw27parseOlympus_CameraSettingsExjjjj
_ZN6LibRaw27phase_one_fix_col_pixel_avgEjj
_ZN6LibRaw28getOlympus_SensorTemperatureEj
_ZN6LibRaw28jxl_dng_load_raw_placeholderEv
_ZN6LibRaw28nikon_load_padded_packed_rawEv
_ZN6LibRaw28parseLeicaInternalBodySerialEj
_ZN6LibRaw28parseOlympus_ImageProcessingEjjjj
_ZN6LibRaw28parse_fuji_compressed_headerEv
_ZN6LibRaw28uncompressed_fp_dng_load_rawEv
_ZN6LibRaw28vc5_dng_load_raw_placeholderEv
_ZN6LibRaw29ahd_interpolate_green_h_and_vEiiPA512_A512_A3_t
_ZN6LibRaw29identify_finetune_by_filesizeEx
_ZN6LibRaw29nikon_load_striped_packed_rawEv
_ZN6LibRaw29phase_one_allocate_tempbufferEv
_ZN6LibRaw30unpacked_load_raw_fuji_f700s20Ev
_ZN6LibRaw37ahd_interpolate_build_homogeneity_mapEiiPA512_A512_A3_sPA512_A2_c
_ZN6LibRaw3FCFEii
_ZN6LibRaw3dcbEii
_ZN6LibRaw41Canon_KeyIsZero_Len2048_linenums_2_StdWBiE DATA
_ZN6LibRaw42ahd_interpolate_combine_homogeneous_pixelsEiiPA512_A512_A3_tPA512_A2_c
_ZN6LibRaw43Canon_KeyIs0x0410_Len2048_linenums_2_StdWBiE DATA
_ZN6LibRaw43Canon_KeyIs0x0410_Len3072_linenums_2_StdWBiE DATA
_ZN6LibRaw45ahd_interpolate_r_and_b_and_convert_to_cielabEiiPA512_A512_A3_tPA512_A512_A3_s
_ZN6LibRaw4fbddEi
_ZN6LibRaw4fcolEii
_ZN6LibRaw4freeEPv
_ZN6LibRaw4get2Ev
_ZN6LibRaw4get4Ev
_ZN6LibRaw52ahd_interpolate_r_and_b_in_rgb_and_convert_to_cielabEiiPA512_A3_tPA512_A3_s
_ZN6LibRaw5COLOREii
_ZN6LibRaw5p1rawEjj
_ZN6LibRaw5sget2EPh
_ZN6LibRaw5sget4EPh
_ZN6LibRaw6callocEyy
_ZN6LibRaw6cielabEPtPs
_ZN6LibRaw6dcb_ppEv
_ZN6LibRaw6derrorEv
_ZN6LibRaw6getintEi
_ZN6LibRaw6mallocEy
_ZN6LibRaw6memmemEPcyS0_y
_ZN6LibRaw6p1rawcEjjRj
_ZN6LibRaw6streadEPcyP26LibRaw_abstract_datastream
_ZN6LibRaw6unpackEv
_ZN6LibRaw7dcb_horEPA3_f
_ZN6LibRaw7dcb_mapEv
_ZN6LibRaw7dcb_verEPA3_f
_ZN6LibRaw7exp_befEff
_ZN6LibRaw7getrealEi
_ZN6LibRaw7is_srawEv
_ZN6LibRaw7median4EPi
_ZN6LibRaw7reallocEPvy
_ZN6LibRaw7recycleEv
_ZN6LibRaw7stretchEv
_ZN6LibRaw7strnlenEPKcy
_ZN6LibRaw7thumbOKEx
_ZN6LibRaw7versionEv
_ZN6LibRaw8getwordsEPcPS0_ii
_ZN6LibRaw8identifyEv
_ZN6LibRaw8initdataEv
_ZN6LibRaw8parseCR3ExxRsPcS0_S0_
_ZN6LibRaw8parse_qtEx
_ZN6LibRaw8sget2RevEPh
_ZN6LibRaw8sgetrealEiPh
_ZN6LibRaw8strerrorEi
_ZN6LibRaw8subtractEPKc
_ZN6LibRaw8tiff_getExPjS0_S0_Px
_ZN6LibRaw8tiff_setEP8tiff_hdrPtttii
_ZN6LibRaw9FujiCCT_KE DATA
_ZN6LibRaw9PentaxISOEt
_ZN6LibRaw9adjust_blEv
_ZN6LibRaw9dcb_colorEv
_ZN6LibRaw9ljpeg_endEP5jhead
_ZN6LibRaw9ljpeg_rowEiP5jhead
_ZN6LibRaw9open_fileEPKc
_ZN6LibRaw9open_fileEPKw
_ZN6LibRaw9pana_dataEiPj
_ZN6LibRaw9parse_gpsEx
_ZN6LibRaw9parse_mosEx
_ZN6LibRaw9raw2imageEv
_ZN6LibRaw9tiff_headEP8tiff_hdri
_ZN6LibRaw9tiff_sgetEjPhjPxPjS2_S1_S2_Pi
_ZN6LibRawC1Ej
_ZN6LibRawC2Ej
_ZN6LibRawD0Ev
_ZN6LibRawD1Ev
_ZN6LibRawD2Ev
_ZN8buffer_t8containsExRx
_ZN8buffer_t9charOReofEx
_ZN9HuffTable12decode_slow1ER7BitPump
_ZN9HuffTable12decode_slow2ER7BitPumpRj
_ZN9HuffTable4diffER7BitPumpj
_ZN9HuffTable6decodeER7BitPump
_ZN9HuffTable7initvalEPjS0_b
_ZN9HuffTableC1Ev
_ZN9HuffTableC2Ev
_ZNK6LibRaw20get_mem_image_formatEPiS0_S0_S0_
_ZNKSt3__129_AllocatorDestroyRangeReverseINS_9allocatorI9HuffTableEEPS2_EclB9nqe220102Ev
_ZNSt12length_errorC2B9nqe220102EPKc
_ZNSt3__111__introsortINS_17_ClassicAlgPolicyERNS_6__lessIvvEEP13p1_row_info_tLb0EEEvT1_S7_T0_NS_15iterator_traitsIS7_E15difference_typeEb
_ZNSt3__111__sift_downB9nqe220102INS_17_ClassicAlgPolicyELb0ERNS_6__lessIvvEEP13p1_row_info_tEEvT2_OT1_NS_15iterator_traitsIS7_E15difference_typeESC_
_ZNSt3__112basic_stringIcNS_11char_traitsIcEENS_9allocatorIcEEE20__throw_length_errorB9nqe220102Ev
_ZNSt3__112basic_stringIcNS_11char_traitsIcEENS_9allocatorIcEEE22__init_internal_bufferB9nqe220102Ey
_ZNSt3__112basic_stringIwNS_11char_traitsIwEENS_9allocatorIwEEE20__throw_length_errorB9nqe220102Ev
_ZNSt3__112basic_stringIwNS_11char_traitsIwEENS_9allocatorIwEEE22__allocate_long_bufferB9nqe220102ERS4_y
_ZNSt3__112basic_stringIwNS_11char_traitsIwEENS_9allocatorIwEEE22__init_internal_bufferB9nqe220102Ey
_ZNSt3__114__split_bufferI24LibRaw_JpegComponentInfoNS_9allocatorIS1_EENS_29__split_buffer_pointer_layoutEEC2EyyRS3_
_ZNSt3__114__split_bufferI9HuffTableNS_9allocatorIS1_EENS_29__split_buffer_pointer_layoutEEC2EyyRS3_
_ZNSt3__114__split_bufferI9HuffTableNS_9allocatorIS1_EENS_29__split_buffer_pointer_layoutEED2Ev
_ZNSt3__116__if_likely_elseB9nqe220102IZNS_6vectorI24LibRaw_JpegComponentInfoNS_9allocatorIS2_EEE12emplace_backIJS2_EEERS2_DpOT_EUlvE_ZNS6_IJS2_EEES7_SA_EUlvE0_EEvbT_T0_
_ZNSt3__116__insertion_sortB9nqe220102INS_17_ClassicAlgPolicyERNS_6__lessIvvEEP13p1_row_info_tEEvT1_S7_T0_
_ZNSt3__119__partial_sort_implB9nqe220102INS_17_ClassicAlgPolicyERNS_6__lessIvvEEP13p1_row_info_tS6_EET1_S7_S7_T2_OT0_
_ZNSt3__120__throw_length_errorB9nqe220102EPKc
_ZNSt3__127__insertion_sort_incompleteB9nqe220102INS_17_ClassicAlgPolicyERNS_6__lessIvvEEP13p1_row_info_tEEbT1_S7_T0_
_ZNSt3__128__exception_guard_exceptionsINS_29_AllocatorDestroyRangeReverseINS_9allocatorI9HuffTableEEPS3_EEED2B9nqe220102Ev
_ZNSt3__131__partition_with_equals_on_leftB9nqe220102INS_17_ClassicAlgPolicyEP13p1_row_info_tRNS_6__lessIvvEEEET0_S7_S7_T1_
_ZNSt3__132__partition_with_equals_on_rightB9nqe220102INS_17_ClassicAlgPolicyEP13p1_row_info_tRNS_6__lessIvvEEEENS_4pairIT0_bEES8_S8_T1_
_ZNSt3__134__uninitialized_allocator_relocateB9nqe220102INS_9allocatorI9HuffTableEEPS2_EEvRT_T0_S7_S7_
_ZNSt3__16vectorI13p1_row_info_tNS_9allocatorIS1_EEE11__vallocateB9nqe220102Ey
_ZNSt3__16vectorI13p1_row_info_tNS_9allocatorIS1_EEE20__throw_length_errorB9nqe220102Ev
_ZNSt3__16vectorI13p1_row_info_tNS_9allocatorIS1_EEEC2B9nqe220102Ey
_ZNSt3__16vectorI24LibRaw_JpegComponentInfoNS_9allocatorIS1_EEE20__throw_length_errorB9nqe220102Ev
_ZNSt3__16vectorI24LibRaw_JpegComponentInfoNS_9allocatorIS1_EEE24__emplace_back_slow_pathIJS1_EEEPS1_DpOT_
_ZNSt3__16vectorI24LibRaw_JpegComponentInfoNS_9allocatorIS1_EEE26__swap_out_circular_bufferERNS_14__split_bufferIS1_S3_NS_29__split_buffer_pointer_layoutEEE
_ZNSt3__16vectorI24LibRaw_JpegComponentInfoNS_9allocatorIS1_EEE9push_backB9nqe220102EOS1_
_ZNSt3__16vectorI9HuffTableNS_9allocatorIS1_EEE16__destroy_vectorclB9nqe220102Ev
_ZNSt3__16vectorI9HuffTableNS_9allocatorIS1_EEE20__throw_length_errorB9nqe220102Ev
_ZNSt3__16vectorI9HuffTableNS_9allocatorIS1_EEE6resizeEy
_ZNSt3__16vectorIcNS_9allocatorIcEEE20__throw_length_errorB9nqe220102Ev
_ZNSt3__16vectorIcNS_9allocatorIcEEE6resizeEy
_ZNSt3__16vectorIhNS_9allocatorIhEEE11__vallocateB9nqe220102Ey
_ZNSt3__16vectorIhNS_9allocatorIhEEE20__throw_length_errorB9nqe220102Ev
_ZNSt3__16vectorIhNS_9allocatorIhEEE6resizeEy
_ZNSt3__16vectorIhNS_9allocatorIhEEEC2B9nqe220102Ey
_ZNSt3__16vectorIhNS_9allocatorIhEEEC2B9nqe220102EyRKh
_ZNSt3__16vectorIiNS_9allocatorIiEEE11__vallocateB9nqe220102Ey
_ZNSt3__16vectorIiNS_9allocatorIiEEE20__throw_length_errorB9nqe220102Ev
_ZNSt3__16vectorIiNS_9allocatorIiEEEC2B9nqe220102Ey
_ZNSt3__16vectorIjNS_9allocatorIjEEE11__vallocateB9nqe220102Ey
_ZNSt3__16vectorIjNS_9allocatorIjEEE20__throw_length_errorB9nqe220102Ev
_ZNSt3__16vectorIjNS_9allocatorIjEEE6resizeEy
_ZNSt3__16vectorIjNS_9allocatorIjEEEC2B9nqe220102Ey
_ZNSt3__16vectorItNS_9allocatorItEEE11__vallocateB9nqe220102Ey
_ZNSt3__16vectorItNS_9allocatorItEEE18__assign_with_sizeB9nqe220102INS_17_ClassicAlgPolicyEPtS6_EEvT0_T1_x
_ZNSt3__16vectorItNS_9allocatorItEEE20__throw_length_errorB9nqe220102Ev
_ZNSt3__16vectorItNS_9allocatorItEEE6resizeEy
_ZNSt3__16vectorItNS_9allocatorItEEEC2B9nqe220102Ey
_ZNSt3__16vectorItNS_9allocatorItEEEC2B9nqe220102EyRKt
_ZNSt3__16vectorIxNS_9allocatorIxEEE11__vallocateB9nqe220102Ey
_ZNSt3__16vectorIxNS_9allocatorIxEEE20__throw_length_errorB9nqe220102Ev
_ZNSt3__16vectorIxNS_9allocatorIxEEEC2B9nqe220102Ey
_ZNSt3__16vectorIxNS_9allocatorIxEEEC2B9nqe220102EyRKx
_ZNSt3__16vectorIyNS_9allocatorIyEEE11__vallocateB9nqe220102Ey
_ZNSt3__16vectorIyNS_9allocatorIyEEE20__throw_length_errorB9nqe220102Ev
_ZNSt3__16vectorIyNS_9allocatorIyEEEC2B9nqe220102Ey
_ZNSt3__16vectorIyNS_9allocatorIyEEEC2B9nqe220102EyRKy
_ZNSt3__17__sort5B9nqe220102INS_17_ClassicAlgPolicyERNS_6__lessIvvEEP13p1_row_info_tTnNS_9enable_ifIXnt21__use_branchless_sortIT0_T1_EEiE4typeELi0EEEvS9_S9_S9_S9_S9_S8_
_ZNSt3__19__sift_upB9nqe220102INS_17_ClassicAlgPolicyERNS_6__lessIvvEEP13p1_row_info_tEEvT1_S7_OT0_NS_15iterator_traitsIS7_E15difference_typeE
_ZNSt3__19allocatorI9HuffTableE7destroyB9nqe220102EPS1_
_ZSt28__throw_bad_array_new_lengthB9nqe220102v
_ZTI10PseudoPump DATA
_ZTI11BitPumpJpeg DATA
_ZTI17LibRaw_exceptions DATA
_ZTI24LibRaw_buffer_datastream DATA
_ZTI25LibRaw_bigfile_datastream DATA
_ZTI25LibRaw_windows_datastream DATA
_ZTI26LibRaw_abstract_datastream DATA
_ZTI34LibRaw_bigfile_buffered_datastream DATA
_ZTI6LibRaw DATA
_ZTI7BitPump DATA
_ZTIN12ByteStreamBE10ExceptionsE DATA
_ZTISt11logic_error DATA
_ZTISt12length_error DATA
_ZTISt13runtime_error DATA
_ZTISt20bad_array_new_length DATA
_ZTISt9bad_alloc DATA
_ZTISt9exception DATA
_ZTS10PseudoPump DATA
_ZTS11BitPumpJpeg DATA
_ZTS17LibRaw_exceptions DATA
_ZTS24LibRaw_buffer_datastream DATA
_ZTS25LibRaw_bigfile_datastream DATA
_ZTS25LibRaw_windows_datastream DATA
_ZTS26LibRaw_abstract_datastream DATA
_ZTS34LibRaw_bigfile_buffered_datastream DATA
_ZTS6LibRaw DATA
_ZTS7BitPump DATA
_ZTSN12ByteStreamBE10ExceptionsE DATA
_ZTSSt11logic_error DATA
_ZTSSt12length_error DATA
_ZTSSt13runtime_error DATA
_ZTSSt20bad_array_new_length DATA
_ZTSSt9bad_alloc DATA
_ZTSSt9exception DATA
_ZTV10PseudoPump DATA
_ZTV11BitPumpJpeg DATA
_ZTV24LibRaw_buffer_datastream DATA
_ZTV25LibRaw_bigfile_datastream DATA
_ZTV25LibRaw_windows_datastream DATA
_ZTV26LibRaw_abstract_datastream DATA
_ZTV34LibRaw_bigfile_buffered_datastream DATA
_ZTV6LibRaw DATA
_ZZNSt3__16vectorIjNS_9allocatorIjEEE12emplace_backIJRKjEEERjDpOT_ENKUlvE0_clEv
default_data_callback
exCoefNumTbl DATA
foveon_data DATA
libraw_COLOR
libraw_adjust_sizes_info_only
libraw_adjust_to_raw_inset_crop
libraw_cameraCount
libraw_cameraList
libraw_capabilities
libraw_close
libraw_dcraw_clear_mem
libraw_dcraw_make_mem_image
libraw_dcraw_make_mem_thumb
libraw_dcraw_ppm_tiff_writer
libraw_dcraw_process
libraw_dcraw_thumb_writer
libraw_free_image
libraw_get_cam_mul
libraw_get_color_maximum
libraw_get_decoder_info
libraw_get_iheight
libraw_get_imgother
libraw_get_iparams
libraw_get_iwidth
libraw_get_lensinfo
libraw_get_pre_mul
libraw_get_raw_height
libraw_get_raw_width
libraw_get_rgb_cam
libraw_init
libraw_open_bayer
libraw_open_buffer
libraw_open_file
libraw_open_wfile
libraw_raw2image
libraw_recycle
libraw_recycle_datastream
libraw_set_adjust_maximum_thr
libraw_set_bright
libraw_set_dataerror_handler
libraw_set_demosaic
libraw_set_exifparser_handler
libraw_set_fbdd_noiserd
libraw_set_gamma
libraw_set_highlight
libraw_set_makernotes_handler
libraw_set_no_auto_bright
libraw_set_output_bps
libraw_set_output_color
libraw_set_output_tif
libraw_set_progress_handler
libraw_set_user_mul
libraw_strerror
libraw_strprogress
libraw_subtract_black
libraw_unpack
libraw_unpack_function_name
libraw_unpack_thumb
libraw_unpack_thumb_ex
libraw_version
libraw_versionNumber
q_step_tbl DATA
tag2wbtable DATA
